; Function Attrs: mustprogress null_pointer_is_valid sspstrong uwtable
define void @_ZN19WiresharkMainWindow17captureFileOpenedEv(ptr noundef align 8 dereferenceable_or_null(560) %0) local_unnamed_addr #0 align 2 {
  %2 = getelementptr inbounds nuw i8, ptr %0, i64 40
  %3 = tail call noundef ptr @_ZN11CaptureFile6windowEv(ptr noundef nonnull align 8 dereferenceable_or_null(48) %2)
  %.not = icmp eq ptr %3, %0
  br i1 %.not, label %4, label %17

4:                                                ; preds = %1
  %5 = getelementptr inbounds nuw i8, ptr %0, i64 400
  %6 = load ptr, ptr %5, align 8
  %7 = tail call noundef zeroext i1 @_ZNK11CaptureFile7isValidEv(ptr noundef nonnull align 8 dereferenceable_or_null(48) %2)
  br i1 %7, label %8, label %_ZNK11CaptureFile7capFileEv.exit

8:                                                ; preds = %4
  %9 = getelementptr inbounds nuw i8, ptr %0, i64 56
  %10 = load ptr, ptr %9, align 8
  br label %_ZNK11CaptureFile7capFileEv.exit

_ZNK11CaptureFile7capFileEv.exit:                 ; preds = %4, %8
  %11 = phi ptr [ %10, %8 ], [ null, %4 ]
  tail call void @_ZN13FileSetDialog10fileOpenedEPK13_capture_file(ptr noundef align 8 dereferenceable_or_null(100) %6, ptr noundef %11)
  tail call void @_ZN19WiresharkMainWindow18setMenusForFileSetEb(ptr noundef align 8 dereferenceable_or_null(560) %0, i1 noundef zeroext true)
  %12 = tail call noundef zeroext i1 @_ZNK11CaptureFile7isValidEv(ptr noundef nonnull align 8 dereferenceable_or_null(48) %2)
  br i1 %12, label %13, label %_ZNK11CaptureFile7capFileEv.exit1

13:                                               ; preds = %_ZNK11CaptureFile7capFileEv.exit
  %14 = getelementptr inbounds nuw i8, ptr %0, i64 56
  %15 = load ptr, ptr %14, align 8
  br label %_ZNK11CaptureFile7capFileEv.exit1

_ZNK11CaptureFile7capFileEv.exit1:                ; preds = %_ZNK11CaptureFile7capFileEv.exit, %13
  %16 = phi ptr [ %15, %13 ], [ null, %_ZNK11CaptureFile7capFileEv.exit ]
  tail call void @_ZN10MainWindow14setCaptureFileEP13_capture_file(ptr noundef align 8 dereferenceable_or_null(360) %0, ptr noundef %16)
  br label %17

17:                                               ; preds = %1, %_ZNK11CaptureFile7capFileEv.exit1
  ret void
}